target datalayout = "e-m:e-p270:32:32-p271:32:32-p272:64:64-i64:64-i128:128-f80:128-n8:16:32:64-S128"
target triple = "x86_64-pc-linux-gnu"

; Function Attrs: mustprogress nounwind uwtable
define internal noundef i64 @_ZN4base12_GLOBAL__N_15lcpyTIcEEmPT_PKS2_m(ptr noundef %0, ptr noundef %1, i64 noundef %2) #0 {
  %4 = alloca i64, align 8
  %5 = alloca ptr, align 8
  %6 = alloca ptr, align 8
  %7 = alloca i64, align 8
  %8 = alloca i64, align 8
  %9 = alloca i32, align 4
  store ptr %0, ptr %5, align 8, !tbaa !18
  store ptr %1, ptr %6, align 8, !tbaa !18
  store i64 %2, ptr %7, align 8, !tbaa !20
  call void @llvm.lifetime.start.p0(i64 8, ptr %8) #17
  store i64 0, ptr %8, align 8, !tbaa !20
  br label %10

10:                                               ; preds = %28, %3
  %11 = load i64, ptr %8, align 8, !tbaa !20
  %12 = load i64, ptr %7, align 8, !tbaa !20
  %13 = icmp ult i64 %11, %12
  br i1 %13, label %15, label %14

14:                                               ; preds = %10
  store i32 2, ptr %9, align 4
  br label %31

15:                                               ; preds = %10
  %16 = load ptr, ptr %6, align 8, !tbaa !18
  %17 = load i64, ptr %8, align 8, !tbaa !20
  %18 = getelementptr inbounds nuw i8, ptr %16, i64 %17
  %19 = load i8, ptr %18, align 1, !tbaa !29
  %20 = load ptr, ptr %5, align 8, !tbaa !18
  %21 = load i64, ptr %8, align 8, !tbaa !20
  %22 = getelementptr inbounds nuw i8, ptr %20, i64 %21
  store i8 %19, ptr %22, align 1, !tbaa !29
  %23 = sext i8 %19 to i32
  %24 = icmp eq i32 %23, 0
  br i1 %24, label %25, label %27

25:                                               ; preds = %15
  %26 = load i64, ptr %8, align 8, !tbaa !20
  store i64 %26, ptr %4, align 8
  store i32 1, ptr %9, align 4
  br label %31

27:                                               ; preds = %15
  br label %28

28:                                               ; preds = %27
  %29 = load i64, ptr %8, align 8, !tbaa !20
  %30 = add i64 %29, 1
  store i64 %30, ptr %8, align 8, !tbaa !20
  br label %10, !llvm.loop !125

31:                                               ; preds = %25, %14
  call void @llvm.lifetime.end.p0(i64 8, ptr %8) #17
  %32 = load i32, ptr %9, align 4
  switch i32 %32, label %55 [
    i32 2, label %33
    i32 1, label %53
  ]

33:                                               ; preds = %31
  %34 = load i64, ptr %7, align 8, !tbaa !20
  %35 = icmp ne i64 %34, 0
  br i1 %35, label %36, label %41

36:                                               ; preds = %33
  %37 = load ptr, ptr %5, align 8, !tbaa !18
  %38 = load i64, ptr %7, align 8, !tbaa !20
  %39 = sub i64 %38, 1
  %40 = getelementptr inbounds nuw i8, ptr %37, i64 %39
  store i8 0, ptr %40, align 1, !tbaa !29
  br label %41

41:                                               ; preds = %36, %33
  br label %42

42:                                               ; preds = %48, %41
  %43 = load ptr, ptr %6, align 8, !tbaa !18
  %44 = load i64, ptr %7, align 8, !tbaa !20
  %45 = getelementptr inbounds nuw i8, ptr %43, i64 %44
  %46 = load i8, ptr %45, align 1, !tbaa !29
  %47 = icmp ne i8 %46, 0
  br i1 %47, label %48, label %51

48:                                               ; preds = %42
  %49 = load i64, ptr %7, align 8, !tbaa !20
  %50 = add i64 %49, 1
  store i64 %50, ptr %7, align 8, !tbaa !20
  br label %42, !llvm.loop !126

51:                                               ; preds = %42
  %52 = load i64, ptr %7, align 8, !tbaa !20
  store i64 %52, ptr %4, align 8
  br label %53

53:                                               ; preds = %51, %31
  %54 = load i64, ptr %4, align 8
  ret i64 %54

55:                                               ; preds = %31
  unreachable
}

; Function Attrs: mustprogress uwtable
define noundef i64 @_ZN4base7strlcpyEPcPKcm(ptr noundef %0, ptr noundef %1, i64 noundef %2) #3 {
  %4 = alloca ptr, align 8
  %5 = alloca ptr, align 8
  %6 = alloca i64, align 8
  store ptr %0, ptr %4, align 8, !tbaa !18
  store ptr %1, ptr %5, align 8, !tbaa !18
  store i64 %2, ptr %6, align 8, !tbaa !20
  %7 = load ptr, ptr %4, align 8, !tbaa !18
  %8 = load ptr, ptr %5, align 8, !tbaa !18
  %9 = load i64, ptr %6, align 8, !tbaa !20
  %10 = call noundef i64 @_ZN4base12_GLOBAL__N_15lcpyTIcEEmPT_PKS2_m(ptr noundef %7, ptr noundef %8, i64 noundef %9)
  ret i64 %10
}